target datalayout = "e-m:e-p270:32:32-p271:32:32-p272:64:64-i64:64-i128:128-f80:128-n8:16:32:64-S128"
target triple = "x86_64-pc-linux-gnu"

%struct.reassembly_table = type { ptr, ptr, ptr, ptr, ptr }
%struct.reassembly_table_functions = type { ptr, ptr, ptr, ptr, ptr, ptr }

@.str.337 = private unnamed_addr constant [13 x i8] c"SSH Protocol\00", align 1
@.str.338 = private unnamed_addr constant [4 x i8] c"SSH\00", align 1
@.str.339 = private unnamed_addr constant [4 x i8] c"ssh\00", align 1
@proto_ssh = internal global i32 0, align 4
@.str.340 = private unnamed_addr constant [18 x i8] c"desegment_buffers\00", align 1
@.str.341 = private unnamed_addr constant [54 x i8] c"Reassemble SSH buffers spanning multiple TCP segments\00", align 1
@.str.342 = private unnamed_addr constant [207 x i8] c"Whether the SSH dissector should reassemble SSH buffers spanning multiple TCP segments. To use this option, you must also enable \22Allow subdissectors to reassemble TCP streams\22 in the TCP protocol settings.\00", align 1
@ssh_desegment = internal global i32 1, align 4
@ssh_master_key_map = internal global ptr null, align 8
@.str.343 = private unnamed_addr constant [12 x i8] c"keylog_file\00", align 1
@.str.344 = private unnamed_addr constant [17 x i8] c"Key log filename\00", align 1
@.str.345 = private unnamed_addr constant [198 x i8] c"The path to the file which contains a list of key exchange secrets in the following format:\0A\22<hex-encoded-cookie> <PRIVATE_KEY|SHARED_SECRET> <hex-encoded-key>\22 (without quotes or leading spaces).\0A\00", align 1
@pref_keylog_file = internal global ptr null, align 8
@.str.346 = private unnamed_addr constant [11 x i8] c"debug_file\00", align 1
@.str.347 = private unnamed_addr constant [15 x i8] c"SSH debug file\00", align 1
@.str.348 = private unnamed_addr constant [116 x i8] c"Redirect SSH debug to the file specified. Leave empty to disable debugging or use \22-\22 to redirect output to stderr.\00", align 1
@ssh_debug_file_name = internal global ptr null, align 8
@ssh_handle = internal global ptr null, align 8
@ssh_reassembly_table = internal global %struct.reassembly_table zeroinitializer, align 8
@tcp_reassembly_table_functions = external constant %struct.reassembly_table_functions, align 8

; Function Attrs: nounwind uwtable
define hidden void @proto_register_ssh() #0 {
  %1 = alloca ptr, align 8
  %2 = alloca ptr, align 8
  %3 = call i32 @proto_register_protocol(ptr noundef @.str.337, ptr noundef @.str.338, ptr noundef @.str.339)
  store i32 %3, ptr @proto_ssh, align 4
  %4 = load i32, ptr @proto_ssh, align 4
  call void @proto_register_field_array(i32 noundef %4, ptr noundef @proto_register_ssh.hf, i32 noundef 164)
  call void @proto_register_subtree_array(ptr noundef @proto_register_ssh.ett, i32 noundef 12)
  %5 = load i32, ptr @proto_ssh, align 4
  %6 = call ptr @expert_register_protocol(i32 noundef %5)
  store ptr %6, ptr %2, align 8
  %7 = load ptr, ptr %2, align 8
  call void @expert_register_field_array(ptr noundef %7, ptr noundef @proto_register_ssh.ei, i32 noundef 5)
  %8 = load i32, ptr @proto_ssh, align 4
  %9 = call ptr @prefs_register_protocol(i32 noundef %8, ptr noundef @ssh_prefs_apply_cb)
  store ptr %9, ptr %1, align 8
  %10 = load ptr, ptr %1, align 8
  call void @prefs_register_bool_preference(ptr noundef %10, ptr noundef @.str.340, ptr noundef @.str.341, ptr noundef @.str.342, ptr noundef @ssh_desegment)
  %11 = call ptr @g_hash_table_new_full(ptr noundef @ssh_hash, ptr noundef @ssh_equal, ptr noundef @ssh_free_glib_allocated_bignum, ptr noundef @ssh_free_glib_allocated_entry)
  store ptr %11, ptr @ssh_master_key_map, align 8
  %12 = load ptr, ptr %1, align 8
  call void @prefs_register_filename_preference(ptr noundef %12, ptr noundef @.str.343, ptr noundef @.str.344, ptr noundef @.str.345, ptr noundef @pref_keylog_file, i32 noundef 0)
  %13 = load ptr, ptr %1, align 8
  call void @prefs_register_filename_preference(ptr noundef %13, ptr noundef @.str.346, ptr noundef @.str.347, ptr noundef @.str.348, ptr noundef @ssh_debug_file_name, i32 noundef 1)
  call void @secrets_register_type(i32 noundef 1397966923, ptr noundef @ssh_secrets_block_callback)
  %14 = load i32, ptr @proto_ssh, align 4
  %15 = call ptr @register_dissector(ptr noundef @.str.339, ptr noundef @dissect_ssh, i32 noundef %14)
  store ptr %15, ptr @ssh_handle, align 8
  call void @reassembly_table_register(ptr noundef @ssh_reassembly_table, ptr noundef @tcp_reassembly_table_functions)
  call void @register_shutdown_routine(ptr noundef @ssh_shutdown)
  ret void
}