; Function Attrs: nounwind uwtable
define hidden void @proto_register_ssh() local_unnamed_addr #0 {
  %1 = tail call i32 @proto_register_protocol(ptr noundef nonnull @.str.337, ptr noundef nonnull @.str.338, ptr noundef nonnull @.str.339) #21
  store i32 %1, ptr @proto_ssh, align 4
  tail call void @proto_register_field_array(i32 noundef %1, ptr noundef nonnull @proto_register_ssh.hf, i32 noundef 164) #21
  tail call void @proto_register_subtree_array(ptr noundef nonnull @proto_register_ssh.ett, i32 noundef 12) #21
  %2 = load i32, ptr @proto_ssh, align 4
  %3 = tail call ptr @expert_register_protocol(i32 noundef %2) #21
  tail call void @expert_register_field_array(ptr noundef %3, ptr noundef nonnull @proto_register_ssh.ei, i32 noundef 5) #21
  %4 = load i32, ptr @proto_ssh, align 4
  %5 = tail call ptr @prefs_register_protocol(i32 noundef %4, ptr noundef nonnull @ssh_prefs_apply_cb) #21
  tail call void @prefs_register_bool_preference(ptr noundef %5, ptr noundef nonnull @.str.340, ptr noundef nonnull @.str.341, ptr noundef nonnull @.str.342, ptr noundef nonnull @ssh_desegment) #21
  %6 = tail call ptr @g_hash_table_new_full(ptr noundef nonnull @ssh_hash, ptr noundef nonnull @ssh_equal, ptr noundef nonnull @ssh_free_glib_allocated_bignum, ptr noundef nonnull @ssh_free_glib_allocated_entry) #21
  store ptr %6, ptr @ssh_master_key_map, align 8
  tail call void @prefs_register_filename_preference(ptr noundef %5, ptr noundef nonnull @.str.343, ptr noundef nonnull @.str.344, ptr noundef nonnull @.str.345, ptr noundef nonnull @pref_keylog_file, i32 noundef 0) #21
  tail call void @prefs_register_filename_preference(ptr noundef %5, ptr noundef nonnull @.str.346, ptr noundef nonnull @.str.347, ptr noundef nonnull @.str.348, ptr noundef nonnull @ssh_debug_file_name, i32 noundef 1) #21
  tail call void @secrets_register_type(i32 noundef 1397966923, ptr noundef nonnull @ssh_secrets_block_callback) #21
  %7 = load i32, ptr @proto_ssh, align 4
  %8 = tail call ptr @register_dissector(ptr noundef nonnull @.str.339, ptr noundef nonnull @dissect_ssh, i32 noundef %7) #21
  store ptr %8, ptr @ssh_handle, align 8
  tail call void @reassembly_table_register(ptr noundef nonnull @ssh_reassembly_table, ptr noundef nonnull @tcp_reassembly_table_functions) #21
  tail call void @register_shutdown_routine(ptr noundef nonnull @ssh_shutdown) #21
  ret void
}